; ModuleID = '58/1004.c'
source_filename = "58/1004.c"
target datalayout = "e-m:e-p270:32:32-p271:32:32-p272:64:64-i64:64-f80:128-n8:16:32:64-S128"
target triple = "x86_64-pc-linux-gnu"

@.str = private unnamed_addr constant [3 x i8] c"%d\00", align 1
@.str.1 = private unnamed_addr constant [3 x i8] c"0\0A\00", align 1
@.str.2 = private unnamed_addr constant [3 x i8] c"1\0A\00", align 1

; Function Attrs: noinline nounwind uwtable
define dso_local i32 @main() #0 {
  %1 = alloca i32, align 4
  %2 = alloca i32, align 4
  %3 = alloca i32, align 4
  %4 = alloca i32, align 4
  %5 = alloca i8*, align 8
  %6 = alloca i32, align 4
  %7 = alloca i8*, align 8
  store i32 0, i32* %1, align 4
  %8 = call i32 (i8*, ...) @__isoc99_scanf(i8* getelementptr inbounds ([3 x i8], [3 x i8]* @.str, i64 0, i64 0), i32* %2)
  %9 = call i32 @getchar()
  store i32 0, i32* %3, align 4
  br label %10

10:                                               ; preds = %111, %0
  %11 = load i32, i32* %3, align 4
  %12 = load i32, i32* %2, align 4
  %13 = icmp slt i32 %11, %12
  br i1 %13, label %14, label %114

14:                                               ; preds = %10
  store i32 0, i32* %6, align 4
  %15 = call noalias i8* @malloc(i64 81) #4
  store i8* %15, i8** %7, align 8
  %16 = load i8*, i8** %7, align 8
  %17 = call i32 (i8*, ...) bitcast (i32 (...)* @gets to i32 (i8*, ...)*)(i8* %16)
  %18 = load i8*, i8** %7, align 8
  %19 = call i64 @strlen(i8* %18) #5
  %20 = trunc i64 %19 to i32
  store i32 %20, i32* %4, align 4
  %21 = load i8*, i8** %7, align 8
  store i8* %21, i8** %5, align 8
  %22 = load i8*, i8** %5, align 8
  %23 = load i8, i8* %22, align 1
  %24 = sext i8 %23 to i32
  %25 = icmp sge i32 %24, 97
  br i1 %25, label %26, label %31

26:                                               ; preds = %14
  %27 = load i8*, i8** %5, align 8
  %28 = load i8, i8* %27, align 1
  %29 = sext i8 %28 to i32
  %30 = icmp sle i32 %29, 122
  br i1 %30, label %48, label %31

31:                                               ; preds = %26, %14
  %32 = load i8*, i8** %5, align 8
  %33 = load i8, i8* %32, align 1
  %34 = sext i8 %33 to i32
  %35 = icmp sge i32 %34, 65
  br i1 %35, label %36, label %41

36:                                               ; preds = %31
  %37 = load i8*, i8** %5, align 8
  %38 = load i8, i8* %37, align 1
  %39 = sext i8 %38 to i32
  %40 = icmp sle i32 %39, 90
  br i1 %40, label %48, label %41

41:                                               ; preds = %36, %31
  %42 = load i8*, i8** %5, align 8
  %43 = load i8, i8* %42, align 1
  %44 = sext i8 %43 to i32
  %45 = icmp eq i32 %44, 95
  br i1 %45, label %48, label %46

46:                                               ; preds = %41
  %47 = call i32 (i8*, ...) @printf(i8* getelementptr inbounds ([3 x i8], [3 x i8]* @.str.1, i64 0, i64 0))
  br label %110

48:                                               ; preds = %41, %36, %26
  %49 = load i8*, i8** %7, align 8
  %50 = getelementptr inbounds i8, i8* %49, i64 1
  store i8* %50, i8** %5, align 8
  br label %51

51:                                               ; preds = %97, %48
  %52 = load i8*, i8** %5, align 8
  %53 = load i8*, i8** %7, align 8
  %54 = load i32, i32* %4, align 4
  %55 = sext i32 %54 to i64
  %56 = getelementptr inbounds i8, i8* %53, i64 %55
  %57 = icmp ult i8* %52, %56
  br i1 %57, label %58, label %100

58:                                               ; preds = %51
  %59 = load i8*, i8** %5, align 8
  %60 = load i8, i8* %59, align 1
  %61 = sext i8 %60 to i32
  %62 = icmp sge i32 %61, 97
  br i1 %62, label %63, label %68

63:                                               ; preds = %58
  %64 = load i8*, i8** %5, align 8
  %65 = load i8, i8* %64, align 1
  %66 = sext i8 %65 to i32
  %67 = icmp sle i32 %66, 122
  br i1 %67, label %93, label %68

68:                                               ; preds = %63, %58
  %69 = load i8*, i8** %5, align 8
  %70 = load i8, i8* %69, align 1
  %71 = sext i8 %70 to i32
  %72 = icmp sge i32 %71, 65
  br i1 %72, label %73, label %78

73:                                               ; preds = %68
  %74 = load i8*, i8** %5, align 8
  %75 = load i8, i8* %74, align 1
  %76 = sext i8 %75 to i32
  %77 = icmp sle i32 %76, 90
  br i1 %77, label %93, label %78

78:                                               ; preds = %73, %68
  %79 = load i8*, i8** %5, align 8
  %80 = load i8, i8* %79, align 1
  %81 = sext i8 %80 to i32
  %82 = icmp sge i32 %81, 48
  br i1 %82, label %83, label %88

83:                                               ; preds = %78
  %84 = load i8*, i8** %5, align 8
  %85 = load i8, i8* %84, align 1
  %86 = sext i8 %85 to i32
  %87 = icmp sle i32 %86, 57
  br i1 %87, label %93, label %88

88:                                               ; preds = %83, %78
  %89 = load i8*, i8** %5, align 8
  %90 = load i8, i8* %89, align 1
  %91 = sext i8 %90 to i32
  %92 = icmp eq i32 %91, 95
  br i1 %92, label %93, label %96

93:                                               ; preds = %88, %83, %73, %63
  %94 = load i32, i32* %6, align 4
  %95 = add nsw i32 %94, 1
  store i32 %95, i32* %6, align 4
  br label %96

96:                                               ; preds = %93, %88
  br label %97

97:                                               ; preds = %96
  %98 = load i8*, i8** %5, align 8
  %99 = getelementptr inbounds i8, i8* %98, i32 1
  store i8* %99, i8** %5, align 8
  br label %51

100:                                              ; preds = %51
  %101 = load i32, i32* %6, align 4
  %102 = load i32, i32* %4, align 4
  %103 = sub nsw i32 %102, 1
  %104 = icmp eq i32 %101, %103
  br i1 %104, label %105, label %107

105:                                              ; preds = %100
  %106 = call i32 (i8*, ...) @printf(i8* getelementptr inbounds ([3 x i8], [3 x i8]* @.str.2, i64 0, i64 0))
  br label %109

107:                                              ; preds = %100
  %108 = call i32 (i8*, ...) @printf(i8* getelementptr inbounds ([3 x i8], [3 x i8]* @.str.1, i64 0, i64 0))
  br label %109

109:                                              ; preds = %107, %105
  br label %110

110:                                              ; preds = %109, %46
  br label %111

111:                                              ; preds = %110
  %112 = load i32, i32* %3, align 4
  %113 = add nsw i32 %112, 1
  store i32 %113, i32* %3, align 4
  br label %10

114:                                              ; preds = %10
  ret i32 0
}

declare dso_local i32 @__isoc99_scanf(i8*, ...) #1

declare dso_local i32 @getchar() #1

; Function Attrs: nounwind
declare dso_local noalias i8* @malloc(i64) #2

declare dso_local i32 @gets(...) #1

; Function Attrs: nounwind readonly
declare dso_local i64 @strlen(i8*) #3

declare dso_local i32 @printf(i8*, ...) #1


!llvm.module.flags = !{!0}
!llvm.ident = !{!1}

!0 = !{i32 1, !"wchar_size", i32 4}
!1 = !{!"clang version 10.0.0-4ubuntu1 "}
